; Function Attrs: mustprogress nounwind uwtable
define internal fastcc void @_ZL13getOptionNameB5cxx11RKN4llvm6RecordE(ptr dead_on_unwind noalias writable align 8 %0, ptr noundef nonnull align 8 dereferenceable(192) %1) unnamed_addr #0 {
  %3 = alloca %"struct.std::__cxx11::basic_string<char>::__sv_wrapper", align 8
  %4 = alloca %"struct.std::__cxx11::basic_string<char>::__sv_wrapper", align 8
  %5 = alloca %"class.std::allocator.0", align 1
  %6 = alloca %"class.std::allocator.0", align 1
  %7 = tail call noundef ptr @_ZNK4llvm6Record12getValueInitENS_9StringRefE(ptr noundef nonnull align 8 dereferenceable(192) %1, ptr nonnull @.str.64, i64 8) #18
  %8 = getelementptr inbounds nuw i8, ptr %7, i64 8
  %9 = load i8, ptr %8, align 8
  %10 = icmp eq i8 %9, 24
  br i1 %10, label %11, label %20

11:                                               ; preds = %2
  %12 = load ptr, ptr %1, align 8
  %13 = getelementptr inbounds nuw i8, ptr %12, i64 24
  %.sroa.0.0.copyload.i.i = load ptr, ptr %13, align 8
  %.sroa.2.0..sroa_idx.i.i = getelementptr inbounds i8, ptr %12, i64 32
  %.sroa.2.0.copyload.i.i = load i64, ptr %.sroa.2.0..sroa_idx.i.i, align 8
  call void @_ZNSaIcEC1Ev(ptr noundef nonnull align 1 dereferenceable(1) %5) #18
  call void @llvm.lifetime.start.p0(i64 16, ptr nonnull %4)
  %14 = call { i64, ptr } @_ZNSt7__cxx1112basic_stringIcSt11char_traitsIcESaIcEE17_S_to_string_viewESt17basic_string_viewIcS2_E(i64 %.sroa.2.0.copyload.i.i, ptr %.sroa.0.0.copyload.i.i) #18
  %15 = extractvalue { i64, ptr } %14, 0
  %16 = extractvalue { i64, ptr } %14, 1
  call void @_ZNSt7__cxx1112basic_stringIcSt11char_traitsIcESaIcEE12__sv_wrapperC1ESt17basic_string_viewIcS2_E(ptr noundef nonnull align 8 dereferenceable(16) %4, i64 %15, ptr %16) #18
  %17 = load i64, ptr %4, align 8
  %18 = getelementptr inbounds nuw i8, ptr %4, i64 8
  %19 = load ptr, ptr %18, align 8
  call void @_ZNSt7__cxx1112basic_stringIcSt11char_traitsIcESaIcEEC2ENS4_12__sv_wrapperERKS3_(ptr noundef nonnull align 8 dereferenceable(32) %0, i64 %17, ptr %19, ptr noundef nonnull align 1 dereferenceable(1) %5) #18
  call void @llvm.lifetime.end.p0(i64 16, ptr nonnull %4)
  br label %30

20:                                               ; preds = %2
  %21 = tail call { ptr, i64 } @_ZNK4llvm6Record16getValueAsStringENS_9StringRefE(ptr noundef nonnull align 8 dereferenceable(192) %1, ptr nonnull @.str.64, i64 8) #18
  %22 = extractvalue { ptr, i64 } %21, 0
  %23 = extractvalue { ptr, i64 } %21, 1
  call void @_ZNSaIcEC1Ev(ptr noundef nonnull align 1 dereferenceable(1) %6) #18
  call void @llvm.lifetime.start.p0(i64 16, ptr nonnull %3)
  %24 = call { i64, ptr } @_ZNSt7__cxx1112basic_stringIcSt11char_traitsIcESaIcEE17_S_to_string_viewESt17basic_string_viewIcS2_E(i64 %23, ptr %22) #18
  %25 = extractvalue { i64, ptr } %24, 0
  %26 = extractvalue { i64, ptr } %24, 1
  call void @_ZNSt7__cxx1112basic_stringIcSt11char_traitsIcESaIcEE12__sv_wrapperC1ESt17basic_string_viewIcS2_E(ptr noundef nonnull align 8 dereferenceable(16) %3, i64 %25, ptr %26) #18
  %27 = load i64, ptr %3, align 8
  %28 = getelementptr inbounds nuw i8, ptr %3, i64 8
  %29 = load ptr, ptr %28, align 8
  call void @_ZNSt7__cxx1112basic_stringIcSt11char_traitsIcESaIcEEC2ENS4_12__sv_wrapperERKS3_(ptr noundef nonnull align 8 dereferenceable(32) %0, i64 %27, ptr %29, ptr noundef nonnull align 1 dereferenceable(1) %6) #18
  call void @llvm.lifetime.end.p0(i64 16, ptr nonnull %3)
  br label %30

30:                                               ; preds = %20, %11
  %.sink = phi ptr [ %6, %20 ], [ %5, %11 ]
  call void @_ZNSaIcED1Ev(ptr noundef nonnull align 1 dereferenceable(1) %.sink) #18
  ret void
}